; Function Attrs: mustprogress uwtable
define void @_ZN4cvc58internal6parser11SymbolTable8bindTypeERKNSt7__cxx1112basic_stringIcSt11char_traitsIcESaIcEEERKSt6vectorINS_4SortESaISC_EESC_(ptr nocapture noundef nonnull readonly align 8 dereferenceable(8) %this, ptr noundef nonnull align 8 dereferenceable(32) %name, ptr nocapture noundef nonnull readonly align 8 dereferenceable(24) %params, ptr nocapture noundef readonly %t) local_unnamed_addr #3 align 2 personality ptr @__gxx_personality_v0 {
entry:
  %agg.tmp = alloca %"class.cvc5::Sort", align 16
  %0 = load ptr, ptr %this, align 8
  %1 = load <2 x ptr>, ptr %t, align 8
  store <2 x ptr> %1, ptr %agg.tmp, align 16
  %_M_refcount.i.i.i = getelementptr inbounds i8, ptr %agg.tmp, i64 16
  %_M_refcount3.i.i.i = getelementptr inbounds i8, ptr %t, i64 16
  %2 = load ptr, ptr %_M_refcount3.i.i.i, align 8
  store ptr %2, ptr %_M_refcount.i.i.i, align 16
  %cmp.not.i.i.i.i = icmp eq ptr %2, null
  br i1 %cmp.not.i.i.i.i, label %_ZN4cvc54SortC2ERKS0_.exit, label %if.then.i.i.i.i

if.then.i.i.i.i:                                  ; preds = %entry
  %_M_use_count.i.i.i.i.i = getelementptr inbounds i8, ptr %2, i64 8
  %3 = load i8, ptr @__libc_single_threaded, align 1
  %tobool.i.not.i.i.i.i.i = icmp eq i8 %3, 0
  br i1 %tobool.i.not.i.i.i.i.i, label %if.else.i.i.i.i.i.i, label %if.then.i.i.i.i.i.i

if.then.i.i.i.i.i.i:                              ; preds = %if.then.i.i.i.i
  %4 = load i32, ptr %_M_use_count.i.i.i.i.i, align 4
  %add.i.i.i.i.i.i = add nsw i32 %4, 1
  store i32 %add.i.i.i.i.i.i, ptr %_M_use_count.i.i.i.i.i, align 4
  br label %_ZN4cvc54SortC2ERKS0_.exit

if.else.i.i.i.i.i.i:                              ; preds = %if.then.i.i.i.i
  %5 = atomicrmw volatile add ptr %_M_use_count.i.i.i.i.i, i32 1 acq_rel, align 4
  br label %_ZN4cvc54SortC2ERKS0_.exit

_ZN4cvc54SortC2ERKS0_.exit:                       ; preds = %entry, %if.then.i.i.i.i.i.i, %if.else.i.i.i.i.i.i
  invoke void @_ZN4cvc58internal6parser11SymbolTable14Implementation8bindTypeERKNSt7__cxx1112basic_stringIcSt11char_traitsIcESaIcEEERKSt6vectorINS_4SortESaISD_EESD_(ptr noundef nonnull align 8 dereferenceable(416) %0, ptr noundef nonnull align 8 dereferenceable(32) %name, ptr noundef nonnull align 8 dereferenceable(24) %params, ptr noundef nonnull %agg.tmp)
          to label %invoke.cont unwind label %lpad

invoke.cont:                                      ; preds = %_ZN4cvc54SortC2ERKS0_.exit
  call void @_ZN4cvc54SortD1Ev(ptr noundef nonnull align 8 dereferenceable(24) %agg.tmp) #19
  ret void

lpad:                                             ; preds = %_ZN4cvc54SortC2ERKS0_.exit
  %6 = landingpad { ptr, i32 }
          cleanup
  call void @_ZN4cvc54SortD1Ev(ptr noundef nonnull align 8 dereferenceable(24) %agg.tmp) #19
  resume { ptr, i32 } %6
}